target datalayout = "e-m:e-p270:32:32-p271:32:32-p272:64:64-i64:64-i128:128-f80:128-n8:16:32:64-S128"
target triple = "x86_64-pc-linux-gnu"

; Function Attrs: mustprogress uwtable
define linkonce_odr hidden noundef zeroext i1 @_ZN5boost9unit_test17test_tree_visitor16test_suite_startERKNS0_10test_suiteE(ptr noundef nonnull align 8 dereferenceable(8) %0, ptr noundef nonnull align 8 dereferenceable(384) %1) unnamed_addr #5 comdat align 2 {
  %3 = alloca ptr, align 8
  %4 = alloca ptr, align 8
  store ptr %0, ptr %3, align 8, !tbaa !3
  store ptr %1, ptr %4, align 8, !tbaa !3
  %5 = load ptr, ptr %3, align 8
  %6 = load ptr, ptr %4, align 8, !tbaa !3
  %7 = getelementptr inbounds i8, ptr %6, i64 8
  %8 = load ptr, ptr %5, align 8, !tbaa !44
  %9 = getelementptr inbounds ptr, ptr %8, i64 0
  %10 = load ptr, ptr %9, align 8
  %11 = call noundef zeroext i1 %10(ptr noundef nonnull align 8 dereferenceable(8) %5, ptr noundef nonnull align 8 dereferenceable(280) %7)
  ret i1 %11
}

; Function Attrs: mustprogress uwtable
define internal noundef zeroext i1 @_ZZN5boost9unit_test9framework20finalize_setup_phaseEmEN16apply_decorators16test_suite_startERKNS0_10test_suiteE(ptr noundef nonnull align 8 dereferenceable(8) %0, ptr noundef nonnull align 8 dereferenceable(384) %1) unnamed_addr #5 align 2 {
  %3 = alloca ptr, align 8
  %4 = alloca ptr, align 8
  store ptr %0, ptr %3, align 8, !tbaa !3
  store ptr %1, ptr %4, align 8, !tbaa !3
  %5 = load ptr, ptr %3, align 8
  %6 = load ptr, ptr %4, align 8, !tbaa !3
  call void @_ZN5boost9unit_test10test_suite8generateEv(ptr noundef nonnull align 8 dereferenceable(384) %6)
  %7 = load ptr, ptr %4, align 8, !tbaa !3
  call void @_ZN5boost9unit_test10test_suite30check_for_duplicate_test_casesEv(ptr noundef nonnull align 8 dereferenceable(384) %7)
  %8 = load ptr, ptr %4, align 8, !tbaa !3
  %9 = call noundef zeroext i1 @_ZN5boost9unit_test17test_tree_visitor16test_suite_startERKNS0_10test_suiteE(ptr noundef nonnull align 8 dereferenceable(8) %5, ptr noundef nonnull align 8 dereferenceable(384) %8)
  ret i1 %9
}