; Function Attrs: mustprogress uwtable
define internal noundef zeroext i1 @_ZZN5boost9unit_test9framework20finalize_setup_phaseEmEN16apply_decorators16test_suite_startERKNS0_10test_suiteE(ptr noundef nonnull align 8 dereferenceable(8) %0, ptr noundef nonnull align 8 dereferenceable(384) %1) unnamed_addr #3 align 2 {
  tail call void @_ZN5boost9unit_test10test_suite8generateEv(ptr noundef nonnull align 8 dereferenceable(384) %1)
  tail call void @_ZN5boost9unit_test10test_suite30check_for_duplicate_test_casesEv(ptr noundef nonnull align 8 dereferenceable(384) %1)
  %3 = getelementptr inbounds i8, ptr %1, i64 8
  %4 = load ptr, ptr %0, align 8, !tbaa !38
  %5 = load ptr, ptr %4, align 8
  %6 = tail call noundef zeroext i1 %5(ptr noundef nonnull align 8 dereferenceable(8) %0, ptr noundef nonnull align 8 dereferenceable(280) %3)
  ret i1 %6
}